; Function Attrs: nounwind uwtable
define dso_local i64 @hashinetextended(ptr noundef readonly captures(none) %0) local_unnamed_addr #0 {
  %2 = getelementptr inbounds nuw i8, ptr %0, i64 32
  %3 = load i64, ptr %2, align 8
  %4 = inttoptr i64 %3 to ptr
  %5 = tail call ptr @pg_detoast_datum_packed(ptr noundef %4) #14
  %6 = load i8, ptr %5, align 1
  %7 = and i8 %6, 1
  %.not = icmp eq i8 %7, 0
  %.v = select i1 %.not, i64 4, i64 1
  %8 = getelementptr inbounds nuw i8, ptr %5, i64 %.v
  %9 = load i8, ptr %8, align 1
  %10 = icmp eq i8 %9, 2
  %11 = select i1 %10, i32 6, i32 18
  %12 = getelementptr inbounds nuw i8, ptr %0, i64 48
  %13 = load i64, ptr %12, align 8
  %14 = tail call i64 @hash_bytes_extended(ptr noundef nonnull %8, i32 noundef range(i32 6, 19) %11, i64 noundef %13) #14
  ret i64 %14
}